; Function Attrs: nounwind uwtable
define internal zeroext i1 @pull_varattnos_walker(ptr noundef %0, ptr noundef %1) #0 {
  %3 = icmp eq ptr %0, null
  br i1 %3, label %26, label %4

4:                                                ; preds = %2
  %5 = load i32, ptr %0, align 4
  %6 = icmp eq i32 %5, 6
  br i1 %6, label %7, label %24

7:                                                ; preds = %4
  %8 = getelementptr inbounds nuw i8, ptr %0, i64 4
  %9 = load i32, ptr %8, align 4
  %10 = getelementptr inbounds nuw i8, ptr %1, i64 8
  %11 = load i32, ptr %10, align 8
  %12 = icmp eq i32 %9, %11
  br i1 %12, label %13, label %26

13:                                               ; preds = %7
  %14 = getelementptr inbounds nuw i8, ptr %0, i64 32
  %15 = load i32, ptr %14, align 8
  %16 = icmp eq i32 %15, 0
  br i1 %16, label %17, label %26

17:                                               ; preds = %13
  %18 = load ptr, ptr %1, align 8
  %19 = getelementptr inbounds nuw i8, ptr %0, i64 8
  %20 = load i16, ptr %19, align 8
  %21 = sext i16 %20 to i32
  %22 = add nsw i32 %21, 7
  %23 = tail call ptr @bms_add_member(ptr noundef %18, i32 noundef %22) #6
  store ptr %23, ptr %1, align 8
  br label %26

24:                                               ; preds = %4
  %25 = tail call zeroext i1 @expression_tree_walker_impl(ptr noundef nonnull %0, ptr noundef nonnull @pull_varattnos_walker, ptr noundef %1) #6
  br label %26

26:                                               ; preds = %7, %13, %17, %2, %24
  %.0 = phi i1 [ %25, %24 ], [ false, %2 ], [ false, %17 ], [ false, %13 ], [ false, %7 ]
  ret i1 %.0
}